target datalayout = "e-m:e-p270:32:32-p271:32:32-p272:64:64-i64:64-i128:128-f80:128-n8:16:32:64-S128"
target triple = "x86_64-pc-linux-gnu"

@match_colors.indexMap = internal constant [8 x i32] [i32 0, i32 -2147483648, i32 0, i32 -2147483648, i32 -1073741824, i32 -1073741824, i32 1073741824, i32 1073741824], align 16
@expand5 = internal constant [32 x i8] c"\00\08\10\18!)19BJRZcks{\84\8C\94\9C\A5\AD\B5\BD\C6\CE\D6\DE\E7\EF\F7\FF", align 16
@expand6 = internal constant [64 x i8] c"\00\04\08\0C\10\14\18\1C $(,048<AEIMQUY]aeimquy}\82\86\8A\8E\92\96\9A\9E\A2\A6\AA\AE\B2\B6\BA\BE\C3\C7\CB\CF\D3\D7\DB\DF\E3\E7\EB\EF\F3\F7\FB\FF", align 16

; Function Attrs: inlinehint nounwind uwtable
define internal void @lerp13rgb(ptr noundef %0, ptr noundef %1, ptr noundef %2) #5 {
  %4 = alloca ptr, align 8
  %5 = alloca ptr, align 8
  %6 = alloca ptr, align 8
  store ptr %0, ptr %4, align 8, !tbaa !13
  store ptr %1, ptr %5, align 8, !tbaa !13
  store ptr %2, ptr %6, align 8, !tbaa !13
  %7 = load ptr, ptr %5, align 8, !tbaa !13
  %8 = getelementptr inbounds i8, ptr %7, i64 0
  %9 = load i8, ptr %8, align 1, !tbaa !46
  %10 = zext i8 %9 to i32
  %11 = mul nsw i32 2, %10
  %12 = load ptr, ptr %6, align 8, !tbaa !13
  %13 = getelementptr inbounds i8, ptr %12, i64 0
  %14 = load i8, ptr %13, align 1, !tbaa !46
  %15 = zext i8 %14 to i32
  %16 = add nsw i32 %11, %15
  %17 = sdiv i32 %16, 3
  %18 = trunc i32 %17 to i8
  %19 = load ptr, ptr %4, align 8, !tbaa !13
  %20 = getelementptr inbounds i8, ptr %19, i64 0
  store i8 %18, ptr %20, align 1, !tbaa !46
  %21 = load ptr, ptr %5, align 8, !tbaa !13
  %22 = getelementptr inbounds i8, ptr %21, i64 1
  %23 = load i8, ptr %22, align 1, !tbaa !46
  %24 = zext i8 %23 to i32
  %25 = mul nsw i32 2, %24
  %26 = load ptr, ptr %6, align 8, !tbaa !13
  %27 = getelementptr inbounds i8, ptr %26, i64 1
  %28 = load i8, ptr %27, align 1, !tbaa !46
  %29 = zext i8 %28 to i32
  %30 = add nsw i32 %25, %29
  %31 = sdiv i32 %30, 3
  %32 = trunc i32 %31 to i8
  %33 = load ptr, ptr %4, align 8, !tbaa !13
  %34 = getelementptr inbounds i8, ptr %33, i64 1
  store i8 %32, ptr %34, align 1, !tbaa !46
  %35 = load ptr, ptr %5, align 8, !tbaa !13
  %36 = getelementptr inbounds i8, ptr %35, i64 2
  %37 = load i8, ptr %36, align 1, !tbaa !46
  %38 = zext i8 %37 to i32
  %39 = mul nsw i32 2, %38
  %40 = load ptr, ptr %6, align 8, !tbaa !13
  %41 = getelementptr inbounds i8, ptr %40, i64 2
  %42 = load i8, ptr %41, align 1, !tbaa !46
  %43 = zext i8 %42 to i32
  %44 = add nsw i32 %39, %43
  %45 = sdiv i32 %44, 3
  %46 = trunc i32 %45 to i8
  %47 = load ptr, ptr %4, align 8, !tbaa !13
  %48 = getelementptr inbounds i8, ptr %47, i64 2
  store i8 %46, ptr %48, align 1, !tbaa !46
  ret void
}

; Function Attrs: inlinehint nounwind uwtable
define internal void @rgb5652rgb(ptr noundef %0, i16 noundef zeroext %1) #5 {
  %3 = alloca ptr, align 8
  %4 = alloca i16, align 2
  %5 = alloca i32, align 4
  %6 = alloca i32, align 4
  %7 = alloca i32, align 4
  store ptr %0, ptr %3, align 8, !tbaa !13
  store i16 %1, ptr %4, align 2, !tbaa !55
  call void @llvm.lifetime.start.p0(i64 4, ptr %5) #7
  %8 = load i16, ptr %4, align 2, !tbaa !55
  %9 = zext i16 %8 to i32
  %10 = and i32 %9, 63488
  %11 = ashr i32 %10, 11
  store i32 %11, ptr %5, align 4, !tbaa !17
  call void @llvm.lifetime.start.p0(i64 4, ptr %6) #7
  %12 = load i16, ptr %4, align 2, !tbaa !55
  %13 = zext i16 %12 to i32
  %14 = and i32 %13, 2016
  %15 = ashr i32 %14, 5
  store i32 %15, ptr %6, align 4, !tbaa !17
  call void @llvm.lifetime.start.p0(i64 4, ptr %7) #7
  %16 = load i16, ptr %4, align 2, !tbaa !55
  %17 = zext i16 %16 to i32
  %18 = and i32 %17, 31
  %19 = ashr i32 %18, 0
  store i32 %19, ptr %7, align 4, !tbaa !17
  %20 = load i32, ptr %5, align 4, !tbaa !17
  %21 = sext i32 %20 to i64
  %22 = getelementptr inbounds [32 x i8], ptr @expand5, i64 0, i64 %21
  %23 = load i8, ptr %22, align 1, !tbaa !46
  %24 = load ptr, ptr %3, align 8, !tbaa !13
  %25 = getelementptr inbounds i8, ptr %24, i64 0
  store i8 %23, ptr %25, align 1, !tbaa !46
  %26 = load i32, ptr %6, align 4, !tbaa !17
  %27 = sext i32 %26 to i64
  %28 = getelementptr inbounds [64 x i8], ptr @expand6, i64 0, i64 %27
  %29 = load i8, ptr %28, align 1, !tbaa !46
  %30 = load ptr, ptr %3, align 8, !tbaa !13
  %31 = getelementptr inbounds i8, ptr %30, i64 1
  store i8 %29, ptr %31, align 1, !tbaa !46
  %32 = load i32, ptr %7, align 4, !tbaa !17
  %33 = sext i32 %32 to i64
  %34 = getelementptr inbounds [32 x i8], ptr @expand5, i64 0, i64 %33
  %35 = load i8, ptr %34, align 1, !tbaa !46
  %36 = load ptr, ptr %3, align 8, !tbaa !13
  %37 = getelementptr inbounds i8, ptr %36, i64 2
  store i8 %35, ptr %37, align 1, !tbaa !46
  %38 = load ptr, ptr %3, align 8, !tbaa !13
  %39 = getelementptr inbounds i8, ptr %38, i64 3
  store i8 0, ptr %39, align 1, !tbaa !46
  call void @llvm.lifetime.end.p0(i64 4, ptr %7) #7
  call void @llvm.lifetime.end.p0(i64 4, ptr %6) #7
  call void @llvm.lifetime.end.p0(i64 4, ptr %5) #7
  ret void
}

; Function Attrs: nounwind uwtable
define internal i32 @match_colors(ptr noundef %0, i64 noundef %1, i16 noundef zeroext %2, i16 noundef zeroext %3) #1 {
  %5 = alloca ptr, align 8
  %6 = alloca i64, align 8
  %7 = alloca i16, align 2
  %8 = alloca i16, align 2
  %9 = alloca i32, align 4
  %10 = alloca i32, align 4
  %11 = alloca i32, align 4
  %12 = alloca i32, align 4
  %13 = alloca [16 x i32], align 16
  %14 = alloca [4 x i32], align 16
  %15 = alloca i32, align 4
  %16 = alloca i32, align 4
  %17 = alloca i32, align 4
  %18 = alloca i32, align 4
  %19 = alloca i32, align 4
  %20 = alloca i32, align 4
  %21 = alloca [16 x i8], align 16
  %22 = alloca i32, align 4
  %23 = alloca i32, align 4
  store ptr %0, ptr %5, align 8, !tbaa !13
  store i64 %1, ptr %6, align 8, !tbaa !15
  store i16 %2, ptr %7, align 2, !tbaa !55
  store i16 %3, ptr %8, align 2, !tbaa !55
  call void @llvm.lifetime.start.p0(i64 4, ptr %9) #7
  store i32 0, ptr %9, align 4, !tbaa !17
  call void @llvm.lifetime.start.p0(i64 4, ptr %10) #7
  call void @llvm.lifetime.start.p0(i64 4, ptr %11) #7
  call void @llvm.lifetime.start.p0(i64 4, ptr %12) #7
  call void @llvm.lifetime.start.p0(i64 64, ptr %13) #7
  call void @llvm.lifetime.start.p0(i64 16, ptr %14) #7
  call void @llvm.lifetime.start.p0(i64 4, ptr %15) #7
  call void @llvm.lifetime.start.p0(i64 4, ptr %16) #7
  call void @llvm.lifetime.start.p0(i64 4, ptr %17) #7
  store i32 0, ptr %17, align 4, !tbaa !17
  call void @llvm.lifetime.start.p0(i64 4, ptr %18) #7
  call void @llvm.lifetime.start.p0(i64 4, ptr %19) #7
  call void @llvm.lifetime.start.p0(i64 4, ptr %20) #7
  call void @llvm.lifetime.start.p0(i64 16, ptr %21) #7
  %24 = getelementptr inbounds [16 x i8], ptr %21, i64 0, i64 0
  %25 = getelementptr inbounds i8, ptr %24, i64 0
  %26 = load i16, ptr %7, align 2, !tbaa !55
  call void @rgb5652rgb(ptr noundef %25, i16 noundef zeroext %26)
  %27 = getelementptr inbounds [16 x i8], ptr %21, i64 0, i64 0
  %28 = getelementptr inbounds i8, ptr %27, i64 4
  %29 = load i16, ptr %8, align 2, !tbaa !55
  call void @rgb5652rgb(ptr noundef %28, i16 noundef zeroext %29)
  %30 = getelementptr inbounds [16 x i8], ptr %21, i64 0, i64 0
  %31 = getelementptr inbounds i8, ptr %30, i64 8
  %32 = getelementptr inbounds [16 x i8], ptr %21, i64 0, i64 0
  %33 = getelementptr inbounds i8, ptr %32, i64 0
  %34 = getelementptr inbounds [16 x i8], ptr %21, i64 0, i64 0
  %35 = getelementptr inbounds i8, ptr %34, i64 4
  call void @lerp13rgb(ptr noundef %31, ptr noundef %33, ptr noundef %35)
  %36 = getelementptr inbounds [16 x i8], ptr %21, i64 0, i64 0
  %37 = getelementptr inbounds i8, ptr %36, i64 12
  %38 = getelementptr inbounds [16 x i8], ptr %21, i64 0, i64 0
  %39 = getelementptr inbounds i8, ptr %38, i64 4
  %40 = getelementptr inbounds [16 x i8], ptr %21, i64 0, i64 0
  %41 = getelementptr inbounds i8, ptr %40, i64 0
  call void @lerp13rgb(ptr noundef %37, ptr noundef %39, ptr noundef %41)
  %42 = getelementptr inbounds [16 x i8], ptr %21, i64 0, i64 0
  %43 = load i8, ptr %42, align 16, !tbaa !46
  %44 = zext i8 %43 to i32
  %45 = getelementptr inbounds [16 x i8], ptr %21, i64 0, i64 4
  %46 = load i8, ptr %45, align 4, !tbaa !46
  %47 = zext i8 %46 to i32
  %48 = sub nsw i32 %44, %47
  store i32 %48, ptr %10, align 4, !tbaa !17
  %49 = getelementptr inbounds [16 x i8], ptr %21, i64 0, i64 1
  %50 = load i8, ptr %49, align 1, !tbaa !46
  %51 = zext i8 %50 to i32
  %52 = getelementptr inbounds [16 x i8], ptr %21, i64 0, i64 5
  %53 = load i8, ptr %52, align 1, !tbaa !46
  %54 = zext i8 %53 to i32
  %55 = sub nsw i32 %51, %54
  store i32 %55, ptr %11, align 4, !tbaa !17
  %56 = getelementptr inbounds [16 x i8], ptr %21, i64 0, i64 2
  %57 = load i8, ptr %56, align 2, !tbaa !46
  %58 = zext i8 %57 to i32
  %59 = getelementptr inbounds [16 x i8], ptr %21, i64 0, i64 6
  %60 = load i8, ptr %59, align 2, !tbaa !46
  %61 = zext i8 %60 to i32
  %62 = sub nsw i32 %58, %61
  store i32 %62, ptr %12, align 4, !tbaa !17
  store i32 0, ptr %16, align 4, !tbaa !17
  br label %63

63:                                               ; preds = %158, %4
  %64 = load i32, ptr %16, align 4, !tbaa !17
  %65 = icmp slt i32 %64, 4
  br i1 %65, label %66, label %161

66:                                               ; preds = %63
  store i32 0, ptr %15, align 4, !tbaa !17
  br label %67

67:                                               ; preds = %122, %66
  %68 = load i32, ptr %15, align 4, !tbaa !17
  %69 = icmp slt i32 %68, 4
  br i1 %69, label %70, label %125

70:                                               ; preds = %67
  %71 = load ptr, ptr %5, align 8, !tbaa !13
  %72 = load i32, ptr %15, align 4, !tbaa !17
  %73 = mul nsw i32 %72, 4
  %74 = add nsw i32 0, %73
  %75 = sext i32 %74 to i64
  %76 = load i32, ptr %16, align 4, !tbaa !17
  %77 = sext i32 %76 to i64
  %78 = load i64, ptr %6, align 8, !tbaa !15
  %79 = mul nsw i64 %77, %78
  %80 = add nsw i64 %75, %79
  %81 = getelementptr inbounds i8, ptr %71, i64 %80
  %82 = load i8, ptr %81, align 1, !tbaa !46
  %83 = zext i8 %82 to i32
  %84 = load i32, ptr %10, align 4, !tbaa !17
  %85 = mul nsw i32 %83, %84
  %86 = load ptr, ptr %5, align 8, !tbaa !13
  %87 = load i32, ptr %15, align 4, !tbaa !17
  %88 = mul nsw i32 %87, 4
  %89 = add nsw i32 1, %88
  %90 = sext i32 %89 to i64
  %91 = load i32, ptr %16, align 4, !tbaa !17
  %92 = sext i32 %91 to i64
  %93 = load i64, ptr %6, align 8, !tbaa !15
  %94 = mul nsw i64 %92, %93
  %95 = add nsw i64 %90, %94
  %96 = getelementptr inbounds i8, ptr %86, i64 %95
  %97 = load i8, ptr %96, align 1, !tbaa !46
  %98 = zext i8 %97 to i32
  %99 = load i32, ptr %11, align 4, !tbaa !17
  %100 = mul nsw i32 %98, %99
  %101 = add nsw i32 %85, %100
  %102 = load ptr, ptr %5, align 8, !tbaa !13
  %103 = load i32, ptr %15, align 4, !tbaa !17
  %104 = mul nsw i32 %103, 4
  %105 = add nsw i32 2, %104
  %106 = sext i32 %105 to i64
  %107 = load i32, ptr %16, align 4, !tbaa !17
  %108 = sext i32 %107 to i64
  %109 = load i64, ptr %6, align 8, !tbaa !15
  %110 = mul nsw i64 %108, %109
  %111 = add nsw i64 %106, %110
  %112 = getelementptr inbounds i8, ptr %102, i64 %111
  %113 = load i8, ptr %112, align 1, !tbaa !46
  %114 = zext i8 %113 to i32
  %115 = load i32, ptr %12, align 4, !tbaa !17
  %116 = mul nsw i32 %114, %115
  %117 = add nsw i32 %101, %116
  %118 = load i32, ptr %17, align 4, !tbaa !17
  %119 = add nsw i32 %118, 1
  store i32 %119, ptr %17, align 4, !tbaa !17
  %120 = sext i32 %118 to i64
  %121 = getelementptr inbounds [16 x i32], ptr %13, i64 0, i64 %120
  store i32 %117, ptr %121, align 4, !tbaa !17
  br label %122

122:                                              ; preds = %70
  %123 = load i32, ptr %15, align 4, !tbaa !17
  %124 = add nsw i32 %123, 1
  store i32 %124, ptr %15, align 4, !tbaa !17
  br label %67, !llvm.loop !72

125:                                              ; preds = %67
  %126 = load i32, ptr %16, align 4, !tbaa !17
  %127 = mul nsw i32 %126, 4
  %128 = add nsw i32 0, %127
  %129 = sext i32 %128 to i64
  %130 = getelementptr inbounds [16 x i8], ptr %21, i64 0, i64 %129
  %131 = load i8, ptr %130, align 1, !tbaa !46
  %132 = zext i8 %131 to i32
  %133 = load i32, ptr %10, align 4, !tbaa !17
  %134 = mul nsw i32 %132, %133
  %135 = load i32, ptr %16, align 4, !tbaa !17
  %136 = mul nsw i32 %135, 4
  %137 = add nsw i32 1, %136
  %138 = sext i32 %137 to i64
  %139 = getelementptr inbounds [16 x i8], ptr %21, i64 0, i64 %138
  %140 = load i8, ptr %139, align 1, !tbaa !46
  %141 = zext i8 %140 to i32
  %142 = load i32, ptr %11, align 4, !tbaa !17
  %143 = mul nsw i32 %141, %142
  %144 = add nsw i32 %134, %143
  %145 = load i32, ptr %16, align 4, !tbaa !17
  %146 = mul nsw i32 %145, 4
  %147 = add nsw i32 2, %146
  %148 = sext i32 %147 to i64
  %149 = getelementptr inbounds [16 x i8], ptr %21, i64 0, i64 %148
  %150 = load i8, ptr %149, align 1, !tbaa !46
  %151 = zext i8 %150 to i32
  %152 = load i32, ptr %12, align 4, !tbaa !17
  %153 = mul nsw i32 %151, %152
  %154 = add nsw i32 %144, %153
  %155 = load i32, ptr %16, align 4, !tbaa !17
  %156 = sext i32 %155 to i64
  %157 = getelementptr inbounds [4 x i32], ptr %14, i64 0, i64 %156
  store i32 %154, ptr %157, align 4, !tbaa !17
  br label %158

158:                                              ; preds = %125
  %159 = load i32, ptr %16, align 4, !tbaa !17
  %160 = add nsw i32 %159, 1
  store i32 %160, ptr %16, align 4, !tbaa !17
  br label %63, !llvm.loop !73

161:                                              ; preds = %63
  %162 = getelementptr inbounds [4 x i32], ptr %14, i64 0, i64 1
  %163 = load i32, ptr %162, align 4, !tbaa !17
  %164 = getelementptr inbounds [4 x i32], ptr %14, i64 0, i64 3
  %165 = load i32, ptr %164, align 4, !tbaa !17
  %166 = add nsw i32 %163, %165
  %167 = ashr i32 %166, 1
  store i32 %167, ptr %18, align 4, !tbaa !17
  %168 = getelementptr inbounds [4 x i32], ptr %14, i64 0, i64 3
  %169 = load i32, ptr %168, align 4, !tbaa !17
  %170 = getelementptr inbounds [4 x i32], ptr %14, i64 0, i64 2
  %171 = load i32, ptr %170, align 8, !tbaa !17
  %172 = add nsw i32 %169, %171
  %173 = ashr i32 %172, 1
  store i32 %173, ptr %19, align 4, !tbaa !17
  %174 = getelementptr inbounds [4 x i32], ptr %14, i64 0, i64 2
  %175 = load i32, ptr %174, align 8, !tbaa !17
  %176 = getelementptr inbounds [4 x i32], ptr %14, i64 0, i64 0
  %177 = load i32, ptr %176, align 16, !tbaa !17
  %178 = add nsw i32 %175, %177
  %179 = ashr i32 %178, 1
  store i32 %179, ptr %20, align 4, !tbaa !17
  store i32 0, ptr %15, align 4, !tbaa !17
  br label %180

180:                                              ; preds = %210, %161
  %181 = load i32, ptr %15, align 4, !tbaa !17
  %182 = icmp slt i32 %181, 16
  br i1 %182, label %183, label %213

183:                                              ; preds = %180
  call void @llvm.lifetime.start.p0(i64 4, ptr %22) #7
  %184 = load i32, ptr %15, align 4, !tbaa !17
  %185 = sext i32 %184 to i64
  %186 = getelementptr inbounds [16 x i32], ptr %13, i64 0, i64 %185
  %187 = load i32, ptr %186, align 4, !tbaa !17
  store i32 %187, ptr %22, align 4, !tbaa !17
  call void @llvm.lifetime.start.p0(i64 4, ptr %23) #7
  %188 = load i32, ptr %22, align 4, !tbaa !17
  %189 = load i32, ptr %19, align 4, !tbaa !17
  %190 = icmp slt i32 %188, %189
  %191 = select i1 %190, i32 4, i32 0
  %192 = load i32, ptr %22, align 4, !tbaa !17
  %193 = load i32, ptr %18, align 4, !tbaa !17
  %194 = icmp slt i32 %192, %193
  %195 = select i1 %194, i32 2, i32 0
  %196 = or i32 %191, %195
  %197 = load i32, ptr %22, align 4, !tbaa !17
  %198 = load i32, ptr %20, align 4, !tbaa !17
  %199 = icmp slt i32 %197, %198
  %200 = select i1 %199, i32 1, i32 0
  %201 = or i32 %196, %200
  store i32 %201, ptr %23, align 4, !tbaa !17
  %202 = load i32, ptr %9, align 4, !tbaa !17
  %203 = lshr i32 %202, 2
  store i32 %203, ptr %9, align 4, !tbaa !17
  %204 = load i32, ptr %23, align 4, !tbaa !17
  %205 = sext i32 %204 to i64
  %206 = getelementptr inbounds [8 x i32], ptr @match_colors.indexMap, i64 0, i64 %205
  %207 = load i32, ptr %206, align 4, !tbaa !17
  %208 = load i32, ptr %9, align 4, !tbaa !17
  %209 = or i32 %208, %207
  store i32 %209, ptr %9, align 4, !tbaa !17
  call void @llvm.lifetime.end.p0(i64 4, ptr %23) #7
  call void @llvm.lifetime.end.p0(i64 4, ptr %22) #7
  br label %210

210:                                              ; preds = %183
  %211 = load i32, ptr %15, align 4, !tbaa !17
  %212 = add nsw i32 %211, 1
  store i32 %212, ptr %15, align 4, !tbaa !17
  br label %180, !llvm.loop !74

213:                                              ; preds = %180
  %214 = load i32, ptr %9, align 4, !tbaa !17
  call void @llvm.lifetime.end.p0(i64 16, ptr %21) #7
  call void @llvm.lifetime.end.p0(i64 4, ptr %20) #7
  call void @llvm.lifetime.end.p0(i64 4, ptr %19) #7
  call void @llvm.lifetime.end.p0(i64 4, ptr %18) #7
  call void @llvm.lifetime.end.p0(i64 4, ptr %17) #7
  call void @llvm.lifetime.end.p0(i64 4, ptr %16) #7
  call void @llvm.lifetime.end.p0(i64 4, ptr %15) #7
  call void @llvm.lifetime.end.p0(i64 16, ptr %14) #7
  call void @llvm.lifetime.end.p0(i64 64, ptr %13) #7
  call void @llvm.lifetime.end.p0(i64 4, ptr %12) #7
  call void @llvm.lifetime.end.p0(i64 4, ptr %11) #7
  call void @llvm.lifetime.end.p0(i64 4, ptr %10) #7
  call void @llvm.lifetime.end.p0(i64 4, ptr %9) #7
  ret i32 %214
}