; Function Attrs: nofree norecurse nosync nounwind memory(argmem: read) uwtable
define internal fastcc i32 @match_colors(ptr noundef readonly captures(none) %0, i64 noundef %1, i16 noundef zeroext %2, i16 noundef zeroext %3) unnamed_addr #4 {
  %5 = alloca [16 x i32], align 16
  %6 = alloca [4 x i32], align 16
  %7 = alloca [16 x i8], align 16
  call void @llvm.lifetime.start.p0(i64 64, ptr nonnull %5) #7
  call void @llvm.lifetime.start.p0(i64 16, ptr nonnull %6) #7
  call void @llvm.lifetime.start.p0(i64 16, ptr nonnull %7) #7
  %8 = zext i16 %2 to i32
  %9 = lshr i32 %8, 11
  %10 = lshr i32 %8, 5
  %11 = and i32 %10, 63
  %12 = and i32 %8, 31
  %13 = zext nneg i32 %9 to i64
  %14 = getelementptr inbounds nuw [32 x i8], ptr @expand5, i64 0, i64 %13
  %15 = load i8, ptr %14, align 1, !tbaa !11
  store i8 %15, ptr %7, align 16, !tbaa !11
  %16 = zext nneg i32 %11 to i64
  %17 = getelementptr inbounds nuw [64 x i8], ptr @expand6, i64 0, i64 %16
  %18 = load i8, ptr %17, align 1, !tbaa !11
  %19 = getelementptr inbounds nuw i8, ptr %7, i64 1
  store i8 %18, ptr %19, align 1, !tbaa !11
  %20 = zext nneg i32 %12 to i64
  %21 = getelementptr inbounds nuw [32 x i8], ptr @expand5, i64 0, i64 %20
  %22 = load i8, ptr %21, align 1, !tbaa !11
  %23 = getelementptr inbounds nuw i8, ptr %7, i64 2
  store i8 %22, ptr %23, align 2, !tbaa !11
  %24 = getelementptr inbounds nuw i8, ptr %7, i64 4
  %25 = zext i16 %3 to i32
  %26 = lshr i32 %25, 11
  %27 = lshr i32 %25, 5
  %28 = and i32 %27, 63
  %29 = and i32 %25, 31
  %30 = zext nneg i32 %26 to i64
  %31 = getelementptr inbounds nuw [32 x i8], ptr @expand5, i64 0, i64 %30
  %32 = load i8, ptr %31, align 1, !tbaa !11
  store i8 %32, ptr %24, align 4, !tbaa !11
  %33 = zext nneg i32 %28 to i64
  %34 = getelementptr inbounds nuw [64 x i8], ptr @expand6, i64 0, i64 %33
  %35 = load i8, ptr %34, align 1, !tbaa !11
  %36 = getelementptr inbounds nuw i8, ptr %7, i64 5
  store i8 %35, ptr %36, align 1, !tbaa !11
  %37 = zext nneg i32 %29 to i64
  %38 = getelementptr inbounds nuw [32 x i8], ptr @expand5, i64 0, i64 %37
  %39 = load i8, ptr %38, align 1, !tbaa !11
  %40 = getelementptr inbounds nuw i8, ptr %7, i64 6
  store i8 %39, ptr %40, align 2, !tbaa !11
  %41 = getelementptr inbounds nuw i8, ptr %7, i64 8
  %42 = zext i8 %15 to i16
  %43 = shl nuw nsw i16 %42, 1
  %44 = zext i8 %32 to i16
  %45 = add nuw nsw i16 %43, %44
  %46 = udiv i16 %45, 3
  %47 = trunc nuw i16 %46 to i8
  store i8 %47, ptr %41, align 8, !tbaa !11
  %48 = zext i8 %18 to i16
  %49 = shl nuw nsw i16 %48, 1
  %50 = zext i8 %35 to i16
  %51 = add nuw nsw i16 %49, %50
  %52 = udiv i16 %51, 3
  %53 = trunc nuw i16 %52 to i8
  %54 = getelementptr inbounds nuw i8, ptr %7, i64 9
  store i8 %53, ptr %54, align 1, !tbaa !11
  %55 = zext i8 %22 to i16
  %56 = shl nuw nsw i16 %55, 1
  %57 = zext i8 %39 to i16
  %58 = add nuw nsw i16 %56, %57
  %59 = udiv i16 %58, 3
  %60 = trunc nuw i16 %59 to i8
  %61 = getelementptr inbounds nuw i8, ptr %7, i64 10
  store i8 %60, ptr %61, align 2, !tbaa !11
  %62 = getelementptr inbounds nuw i8, ptr %7, i64 12
  %63 = shl nuw nsw i16 %44, 1
  %64 = add nuw nsw i16 %63, %42
  %65 = udiv i16 %64, 3
  %66 = trunc nuw i16 %65 to i8
  store i8 %66, ptr %62, align 4, !tbaa !11
  %67 = shl nuw nsw i16 %50, 1
  %68 = add nuw nsw i16 %67, %48
  %69 = udiv i16 %68, 3
  %70 = trunc nuw i16 %69 to i8
  %71 = getelementptr inbounds nuw i8, ptr %7, i64 13
  store i8 %70, ptr %71, align 1, !tbaa !11
  %72 = shl nuw nsw i16 %57, 1
  %73 = add nuw nsw i16 %72, %55
  %74 = udiv i16 %73, 3
  %75 = trunc nuw i16 %74 to i8
  %76 = getelementptr inbounds nuw i8, ptr %7, i64 14
  store i8 %75, ptr %76, align 2, !tbaa !11
  %77 = zext i8 %15 to i32
  %78 = zext i8 %32 to i32
  %79 = sub nsw i32 %77, %78
  %80 = zext i8 %18 to i32
  %81 = zext i8 %35 to i32
  %82 = sub nsw i32 %80, %81
  %83 = zext i8 %22 to i32
  %84 = zext i8 %39 to i32
  %85 = sub nsw i32 %83, %84
  br label %.preheader

.preheader:                                       ; preds = %4, %106
  %indvars.iv57 = phi i64 [ 0, %4 ], [ %indvars.iv.next58, %106 ]
  %.04347 = phi i64 [ 0, %4 ], [ %indvars.iv.next53, %106 ]
  %86 = mul nsw i64 %1, %indvars.iv57
  %87 = getelementptr i8, ptr %0, i64 %86
  %sext = shl i64 %.04347, 32
  %88 = ashr exact i64 %sext, 32
  br label %89

89:                                               ; preds = %.preheader, %89
  %indvars.iv52 = phi i64 [ %88, %.preheader ], [ %indvars.iv.next53, %89 ]
  %indvars.iv = phi i64 [ 0, %.preheader ], [ %indvars.iv.next, %89 ]
  %90 = shl nuw nsw i64 %indvars.iv, 2
  %91 = getelementptr i8, ptr %87, i64 %90
  %92 = load i8, ptr %91, align 1, !tbaa !11
  %93 = zext i8 %92 to i32
  %94 = mul nsw i32 %79, %93
  %95 = getelementptr i8, ptr %91, i64 1
  %96 = load i8, ptr %95, align 1, !tbaa !11
  %97 = zext i8 %96 to i32
  %98 = mul nsw i32 %82, %97
  %99 = add nsw i32 %98, %94
  %100 = getelementptr i8, ptr %91, i64 2
  %101 = load i8, ptr %100, align 1, !tbaa !11
  %102 = zext i8 %101 to i32
  %103 = mul nsw i32 %85, %102
  %104 = add nsw i32 %99, %103
  %indvars.iv.next53 = add nsw i64 %indvars.iv52, 1
  %105 = getelementptr inbounds [16 x i32], ptr %5, i64 0, i64 %indvars.iv52
  store i32 %104, ptr %105, align 4, !tbaa !47
  %indvars.iv.next = add nuw nsw i64 %indvars.iv, 1
  %exitcond.not = icmp eq i64 %indvars.iv.next, 4
  br i1 %exitcond.not, label %106, label %89, !llvm.loop !62

106:                                              ; preds = %89
  %107 = shl nuw nsw i64 %indvars.iv57, 2
  %108 = getelementptr inbounds nuw [16 x i8], ptr %7, i64 0, i64 %107
  %109 = load i8, ptr %108, align 4, !tbaa !11
  %110 = zext i8 %109 to i32
  %111 = mul nsw i32 %79, %110
  %112 = or disjoint i64 %107, 1
  %113 = getelementptr inbounds nuw [16 x i8], ptr %7, i64 0, i64 %112
  %114 = load i8, ptr %113, align 1, !tbaa !11
  %115 = zext i8 %114 to i32
  %116 = mul nsw i32 %82, %115
  %117 = add nsw i32 %116, %111
  %118 = or disjoint i64 %107, 2
  %119 = getelementptr inbounds nuw [16 x i8], ptr %7, i64 0, i64 %118
  %120 = load i8, ptr %119, align 2, !tbaa !11
  %121 = zext i8 %120 to i32
  %122 = mul nsw i32 %85, %121
  %123 = add nsw i32 %117, %122
  %124 = getelementptr inbounds nuw [4 x i32], ptr %6, i64 0, i64 %indvars.iv57
  store i32 %123, ptr %124, align 4, !tbaa !47
  %indvars.iv.next58 = add nuw nsw i64 %indvars.iv57, 1
  %exitcond60.not = icmp eq i64 %indvars.iv.next58, 4
  br i1 %exitcond60.not, label %125, label %.preheader, !llvm.loop !63

125:                                              ; preds = %106
  %126 = getelementptr inbounds nuw i8, ptr %6, i64 4
  %127 = load i32, ptr %126, align 4, !tbaa !47
  %128 = getelementptr inbounds nuw i8, ptr %6, i64 12
  %129 = load i32, ptr %128, align 4, !tbaa !47
  %130 = add nsw i32 %129, %127
  %131 = ashr i32 %130, 1
  %132 = getelementptr inbounds nuw i8, ptr %6, i64 8
  %133 = load i32, ptr %132, align 8, !tbaa !47
  %134 = add nsw i32 %133, %129
  %135 = ashr i32 %134, 1
  %136 = load i32, ptr %6, align 16, !tbaa !47
  %137 = add nsw i32 %136, %133
  %138 = ashr i32 %137, 1
  br label %139

139:                                              ; preds = %125, %139
  %indvars.iv61 = phi i64 [ 0, %125 ], [ %indvars.iv.next62, %139 ]
  %.050 = phi i32 [ 0, %125 ], [ %153, %139 ]
  %140 = getelementptr inbounds nuw [16 x i32], ptr %5, i64 0, i64 %indvars.iv61
  %141 = load i32, ptr %140, align 4, !tbaa !47
  %142 = icmp slt i32 %141, %135
  %143 = select i1 %142, i64 4, i64 0
  %144 = icmp slt i32 %141, %131
  %145 = select i1 %144, i64 2, i64 0
  %146 = or disjoint i64 %143, %145
  %147 = icmp slt i32 %141, %138
  %148 = zext i1 %147 to i64
  %149 = or disjoint i64 %146, %148
  %150 = lshr i32 %.050, 2
  %151 = getelementptr inbounds nuw [8 x i32], ptr @match_colors.indexMap, i64 0, i64 %149
  %152 = load i32, ptr %151, align 4, !tbaa !47
  %153 = or i32 %152, %150
  %indvars.iv.next62 = add nuw nsw i64 %indvars.iv61, 1
  %exitcond64.not = icmp eq i64 %indvars.iv.next62, 16
  br i1 %exitcond64.not, label %154, label %139, !llvm.loop !64

154:                                              ; preds = %139
  call void @llvm.lifetime.end.p0(i64 16, ptr nonnull %7) #7
  call void @llvm.lifetime.end.p0(i64 16, ptr nonnull %6) #7
  call void @llvm.lifetime.end.p0(i64 64, ptr nonnull %5) #7
  ret i32 %153
}